target datalayout = "e-m:e-p270:32:32-p271:32:32-p272:64:64-i64:64-i128:128-f80:128-n8:16:32:64-S128"
target triple = "x86_64-unknown-linux-gnu"

%"class.boost::detail::shared_count" = type { ptr }
%"class.boost::shared_ptr.21" = type { ptr, %"class.boost::detail::shared_count" }
%"class.boost::shared_ptr.20" = type { ptr, %"class.boost::detail::shared_count" }
%"class.QuantLib::AbcdCalibration" = type { i8, i8, i8, i8, double, double, double, double, %"class.boost::shared_ptr.22", i32, %"class.boost::shared_ptr.20", %"class.boost::shared_ptr.21", %"class.std::vector", i8, %"class.std::vector", %"class.std::vector" }
%"class.boost::shared_ptr.22" = type { ptr, %"class.boost::detail::shared_count" }
%"class.std::vector" = type { %"struct.std::_Vector_base" }
%"struct.std::_Vector_base" = type { %"struct.std::_Vector_base<double, std::allocator<double>>::_Vector_impl" }
%"struct.std::_Vector_base<double, std::allocator<double>>::_Vector_impl" = type { %"struct.std::_Vector_base<double, std::allocator<double>>::_Vector_impl_data" }
%"struct.std::_Vector_base<double, std::allocator<double>>::_Vector_impl_data" = type { ptr, ptr, ptr }
%"class.QuantLib::AbcdFunction" = type { %"class.QuantLib::AbcdMathFunction" }
%"class.QuantLib::AbcdMathFunction" = type { double, double, double, double, %"class.std::vector", %"class.std::vector", double, double, double, double, double, double, double }

; Function Attrs: inlinehint mustprogress uwtable
define linkonce_odr noundef double @_ZN8QuantLib19abcdBlackVolatilityEddddd(double noundef %u, double noundef %a, double noundef %b, double noundef %c, double noundef %d) #4 comdat personality ptr @__gxx_personality_v0 {
entry:
  %u.addr = alloca double, align 8
  %a.addr = alloca double, align 8
  %b.addr = alloca double, align 8
  %c.addr = alloca double, align 8
  %d.addr = alloca double, align 8
  %model = alloca %"class.QuantLib::AbcdFunction", align 8
  %exn.slot = alloca ptr, align 8
  %ehselector.slot = alloca i32, align 4
  store double %u, ptr %u.addr, align 8, !tbaa !9
  store double %a, ptr %a.addr, align 8, !tbaa !9
  store double %b, ptr %b.addr, align 8, !tbaa !9
  store double %c, ptr %c.addr, align 8, !tbaa !9
  store double %d, ptr %d.addr, align 8, !tbaa !9
  call void @llvm.lifetime.start.p0(i64 136, ptr %model) #17
  %0 = load double, ptr %a.addr, align 8, !tbaa !9
  %1 = load double, ptr %b.addr, align 8, !tbaa !9
  %2 = load double, ptr %c.addr, align 8, !tbaa !9
  %3 = load double, ptr %d.addr, align 8, !tbaa !9
  call void @_ZN8QuantLib12AbcdFunctionC1Edddd(ptr noundef nonnull align 8 dereferenceable(136) %model, double noundef %0, double noundef %1, double noundef %2, double noundef %3)
  %4 = load double, ptr %u.addr, align 8, !tbaa !9
  %5 = load double, ptr %u.addr, align 8, !tbaa !9
  %call = invoke noundef double @_ZNK8QuantLib12AbcdFunction10volatilityEddd(ptr noundef nonnull align 8 dereferenceable(136) %model, double noundef 0.000000e+00, double noundef %4, double noundef %5)
          to label %invoke.cont unwind label %lpad

invoke.cont:                                      ; preds = %entry
  call void @_ZN8QuantLib16AbcdMathFunctionD2Ev(ptr noundef nonnull align 8 dereferenceable(136) %model) #17
  call void @llvm.lifetime.end.p0(i64 136, ptr %model) #17
  ret double %call

lpad:                                             ; preds = %entry
  %6 = landingpad { ptr, i32 }
          cleanup
  %7 = extractvalue { ptr, i32 } %6, 0
  store ptr %7, ptr %exn.slot, align 8
  %8 = extractvalue { ptr, i32 } %6, 1
  store i32 %8, ptr %ehselector.slot, align 4
  call void @_ZN8QuantLib16AbcdMathFunctionD2Ev(ptr noundef nonnull align 8 dereferenceable(136) %model) #17
  call void @llvm.lifetime.end.p0(i64 136, ptr %model) #17
  br label %eh.resume

eh.resume:                                        ; preds = %lpad
  %exn = load ptr, ptr %exn.slot, align 8
  %sel = load i32, ptr %ehselector.slot, align 4
  %lpad.val = insertvalue { ptr, i32 } poison, ptr %exn, 0
  %lpad.val1 = insertvalue { ptr, i32 } %lpad.val, i32 %sel, 1
  resume { ptr, i32 } %lpad.val1
}

; Function Attrs: mustprogress uwtable
define noundef double @_ZNK8QuantLib15AbcdCalibration5valueEd(ptr noundef nonnull align 8 dereferenceable(176) %this, double noundef %x) #3 align 2 {
entry:
  %this.addr = alloca ptr, align 8
  %x.addr = alloca double, align 8
  store ptr %this, ptr %this.addr, align 8, !tbaa !3
  store double %x, ptr %x.addr, align 8, !tbaa !9
  %this1 = load ptr, ptr %this.addr, align 8
  %0 = load double, ptr %x.addr, align 8, !tbaa !9
  %a_ = getelementptr inbounds nuw %"class.QuantLib::AbcdCalibration", ptr %this1, i32 0, i32 4
  %1 = load double, ptr %a_, align 8, !tbaa !41
  %b_ = getelementptr inbounds nuw %"class.QuantLib::AbcdCalibration", ptr %this1, i32 0, i32 5
  %2 = load double, ptr %b_, align 8, !tbaa !42
  %c_ = getelementptr inbounds nuw %"class.QuantLib::AbcdCalibration", ptr %this1, i32 0, i32 6
  %3 = load double, ptr %c_, align 8, !tbaa !43
  %d_ = getelementptr inbounds nuw %"class.QuantLib::AbcdCalibration", ptr %this1, i32 0, i32 7
  %4 = load double, ptr %d_, align 8, !tbaa !44
  %call = call noundef double @_ZN8QuantLib19abcdBlackVolatilityEddddd(double noundef %0, double noundef %1, double noundef %2, double noundef %3, double noundef %4)
  ret double %call
}