; Function Attrs: mustprogress uwtable
define noundef double @_ZNK8QuantLib15AbcdCalibration5valueEd(ptr nocapture noundef nonnull readonly align 8 dereferenceable(176) %this, double noundef %x) local_unnamed_addr #3 align 2 personality ptr @__gxx_personality_v0 {
entry:
  %model.i = alloca %"class.QuantLib::AbcdFunction", align 8
  %a_ = getelementptr inbounds nuw i8, ptr %this, i64 8
  %0 = load double, ptr %a_, align 8, !tbaa !45
  %b_ = getelementptr inbounds nuw i8, ptr %this, i64 16
  %1 = load double, ptr %b_, align 8, !tbaa !46
  %c_ = getelementptr inbounds nuw i8, ptr %this, i64 24
  %2 = load double, ptr %c_, align 8, !tbaa !47
  %d_ = getelementptr inbounds nuw i8, ptr %this, i64 32
  %3 = load double, ptr %d_, align 8, !tbaa !48
  call void @llvm.lifetime.start.p0(i64 136, ptr nonnull %model.i) #22
  call void @_ZN8QuantLib12AbcdFunctionC1Edddd(ptr noundef nonnull align 8 dereferenceable(136) %model.i, double noundef %0, double noundef %1, double noundef %2, double noundef %3)
  %call.i = invoke noundef double @_ZNK8QuantLib12AbcdFunction10volatilityEddd(ptr noundef nonnull align 8 dereferenceable(136) %model.i, double noundef 0.000000e+00, double noundef %x, double noundef %x)
          to label %invoke.cont.i unwind label %lpad.i

invoke.cont.i:                                    ; preds = %entry
  %dabcd_.i.i = getelementptr inbounds nuw i8, ptr %model.i, i64 56
  %4 = load ptr, ptr %dabcd_.i.i, align 8, !tbaa !52
  %tobool.not.i.i.i.i.i = icmp eq ptr %4, null
  br i1 %tobool.not.i.i.i.i.i, label %_ZNSt6vectorIdSaIdEED2Ev.exit.i.i, label %if.then.i.i.i.i.i

if.then.i.i.i.i.i:                                ; preds = %invoke.cont.i
  %_M_end_of_storage.i.i.i.i = getelementptr inbounds nuw i8, ptr %model.i, i64 72
  %5 = load ptr, ptr %_M_end_of_storage.i.i.i.i, align 8, !tbaa !53
  %sub.ptr.lhs.cast.i.i.i.i = ptrtoint ptr %5 to i64
  %sub.ptr.rhs.cast.i.i.i.i = ptrtoint ptr %4 to i64
  %sub.ptr.sub.i.i.i.i = sub i64 %sub.ptr.lhs.cast.i.i.i.i, %sub.ptr.rhs.cast.i.i.i.i
  call void @_ZdlPvm(ptr noundef nonnull %4, i64 noundef %sub.ptr.sub.i.i.i.i) #26
  br label %_ZNSt6vectorIdSaIdEED2Ev.exit.i.i

_ZNSt6vectorIdSaIdEED2Ev.exit.i.i:                ; preds = %if.then.i.i.i.i.i, %invoke.cont.i
  %abcd_.i.i = getelementptr inbounds nuw i8, ptr %model.i, i64 32
  %6 = load ptr, ptr %abcd_.i.i, align 8, !tbaa !52
  %tobool.not.i.i.i1.i.i = icmp eq ptr %6, null
  br i1 %tobool.not.i.i.i1.i.i, label %_ZN8QuantLib19abcdBlackVolatilityEddddd.exit, label %if.then.i.i.i2.i.i

if.then.i.i.i2.i.i:                               ; preds = %_ZNSt6vectorIdSaIdEED2Ev.exit.i.i
  %_M_end_of_storage.i.i3.i.i = getelementptr inbounds nuw i8, ptr %model.i, i64 48
  %7 = load ptr, ptr %_M_end_of_storage.i.i3.i.i, align 8, !tbaa !53
  %sub.ptr.lhs.cast.i.i4.i.i = ptrtoint ptr %7 to i64
  %sub.ptr.rhs.cast.i.i5.i.i = ptrtoint ptr %6 to i64
  %sub.ptr.sub.i.i6.i.i = sub i64 %sub.ptr.lhs.cast.i.i4.i.i, %sub.ptr.rhs.cast.i.i5.i.i
  call void @_ZdlPvm(ptr noundef nonnull %6, i64 noundef %sub.ptr.sub.i.i6.i.i) #26
  br label %_ZN8QuantLib19abcdBlackVolatilityEddddd.exit

lpad.i:                                           ; preds = %entry
  %8 = landingpad { ptr, i32 }
          cleanup
  call void @_ZN8QuantLib16AbcdMathFunctionD2Ev(ptr noundef nonnull align 8 dereferenceable(136) %model.i) #22
  call void @llvm.lifetime.end.p0(i64 136, ptr nonnull %model.i) #22
  resume { ptr, i32 } %8

_ZN8QuantLib19abcdBlackVolatilityEddddd.exit:     ; preds = %_ZNSt6vectorIdSaIdEED2Ev.exit.i.i, %if.then.i.i.i2.i.i
  call void @llvm.lifetime.end.p0(i64 136, ptr nonnull %model.i) #22
  ret double %call.i
}